target datalayout = "e-m:e-p270:32:32-p271:32:32-p272:64:64-i64:64-i128:128-f80:128-n8:16:32:64-S128"
target triple = "x86_64-pc-linux-gnu"

%struct._generic_N_Vector = type { ptr, ptr, ptr }
%struct._N_VectorContent_SensWrapper = type { ptr, i32, i32 }

; Function Attrs: nounwind uwtable
define ptr @N_VClone_SensWrapper(ptr noundef %0) #0 {
  %2 = alloca ptr, align 8
  %3 = alloca ptr, align 8
  %4 = alloca ptr, align 8
  %5 = alloca i32, align 4
  %6 = alloca i32, align 4
  store ptr %0, ptr %3, align 8, !tbaa !10
  call void @llvm.lifetime.start.p0(i64 8, ptr %4) #5
  call void @llvm.lifetime.start.p0(i64 4, ptr %5) #5
  store ptr null, ptr %4, align 8, !tbaa !10
  %7 = load ptr, ptr %3, align 8, !tbaa !10
  %8 = call ptr @N_VCloneEmpty_SensWrapper(ptr noundef %7)
  store ptr %8, ptr %4, align 8, !tbaa !10
  %9 = load ptr, ptr %4, align 8, !tbaa !10
  %10 = icmp eq ptr %9, null
  br i1 %10, label %11, label %12

11:                                               ; preds = %1
  store ptr null, ptr %2, align 8
  store i32 1, ptr %6, align 4
  br label %62

12:                                               ; preds = %1
  %13 = load ptr, ptr %4, align 8, !tbaa !10
  %14 = getelementptr inbounds nuw %struct._generic_N_Vector, ptr %13, i32 0, i32 0
  %15 = load ptr, ptr %14, align 8, !tbaa !45
  %16 = getelementptr inbounds nuw %struct._N_VectorContent_SensWrapper, ptr %15, i32 0, i32 2
  store i32 1, ptr %16, align 4, !tbaa !43
  store i32 0, ptr %5, align 4, !tbaa !3
  br label %17

17:                                               ; preds = %57, %12
  %18 = load i32, ptr %5, align 4, !tbaa !3
  %19 = load ptr, ptr %4, align 8, !tbaa !10
  %20 = getelementptr inbounds nuw %struct._generic_N_Vector, ptr %19, i32 0, i32 0
  %21 = load ptr, ptr %20, align 8, !tbaa !45
  %22 = getelementptr inbounds nuw %struct._N_VectorContent_SensWrapper, ptr %21, i32 0, i32 1
  %23 = load i32, ptr %22, align 8, !tbaa !40
  %24 = icmp slt i32 %18, %23
  br i1 %24, label %25, label %60

25:                                               ; preds = %17
  %26 = load ptr, ptr %3, align 8, !tbaa !10
  %27 = getelementptr inbounds nuw %struct._generic_N_Vector, ptr %26, i32 0, i32 0
  %28 = load ptr, ptr %27, align 8, !tbaa !45
  %29 = getelementptr inbounds nuw %struct._N_VectorContent_SensWrapper, ptr %28, i32 0, i32 0
  %30 = load ptr, ptr %29, align 8, !tbaa !44
  %31 = load i32, ptr %5, align 4, !tbaa !3
  %32 = sext i32 %31 to i64
  %33 = getelementptr inbounds ptr, ptr %30, i64 %32
  %34 = load ptr, ptr %33, align 8, !tbaa !10
  %35 = call ptr @N_VClone(ptr noundef %34)
  %36 = load ptr, ptr %4, align 8, !tbaa !10
  %37 = getelementptr inbounds nuw %struct._generic_N_Vector, ptr %36, i32 0, i32 0
  %38 = load ptr, ptr %37, align 8, !tbaa !45
  %39 = getelementptr inbounds nuw %struct._N_VectorContent_SensWrapper, ptr %38, i32 0, i32 0
  %40 = load ptr, ptr %39, align 8, !tbaa !44
  %41 = load i32, ptr %5, align 4, !tbaa !3
  %42 = sext i32 %41 to i64
  %43 = getelementptr inbounds ptr, ptr %40, i64 %42
  store ptr %35, ptr %43, align 8, !tbaa !10
  %44 = load ptr, ptr %4, align 8, !tbaa !10
  %45 = getelementptr inbounds nuw %struct._generic_N_Vector, ptr %44, i32 0, i32 0
  %46 = load ptr, ptr %45, align 8, !tbaa !45
  %47 = getelementptr inbounds nuw %struct._N_VectorContent_SensWrapper, ptr %46, i32 0, i32 0
  %48 = load ptr, ptr %47, align 8, !tbaa !44
  %49 = load i32, ptr %5, align 4, !tbaa !3
  %50 = sext i32 %49 to i64
  %51 = getelementptr inbounds ptr, ptr %48, i64 %50
  %52 = load ptr, ptr %51, align 8, !tbaa !10
  %53 = icmp eq ptr %52, null
  br i1 %53, label %54, label %56

54:                                               ; preds = %25
  %55 = load ptr, ptr %4, align 8, !tbaa !10
  call void @N_VDestroy(ptr noundef %55)
  store ptr null, ptr %2, align 8
  store i32 1, ptr %6, align 4
  br label %62

56:                                               ; preds = %25
  br label %57

57:                                               ; preds = %56
  %58 = load i32, ptr %5, align 4, !tbaa !3
  %59 = add nsw i32 %58, 1
  store i32 %59, ptr %5, align 4, !tbaa !3
  br label %17

60:                                               ; preds = %17
  %61 = load ptr, ptr %4, align 8, !tbaa !10
  store ptr %61, ptr %2, align 8
  store i32 1, ptr %6, align 4
  br label %62

62:                                               ; preds = %60, %54, %11
  call void @llvm.lifetime.end.p0(i64 4, ptr %5) #5
  call void @llvm.lifetime.end.p0(i64 8, ptr %4) #5
  %63 = load ptr, ptr %2, align 8
  ret ptr %63
}