; Function Attrs: nounwind uwtable
define noundef ptr @N_VClone_SensWrapper(ptr noundef captures(address_is_null) %0) #0 {
  %2 = tail call ptr @N_VCloneEmpty_SensWrapper(ptr noundef %0)
  %3 = icmp eq ptr %2, null
  br i1 %3, label %.loopexit, label %4

4:                                                ; preds = %1
  %5 = load ptr, ptr %2, align 8, !tbaa !39
  %6 = getelementptr inbounds nuw i8, ptr %5, i64 12
  store i32 1, ptr %6, align 4, !tbaa !37
  %7 = getelementptr inbounds nuw i8, ptr %5, i64 8
  %8 = load i32, ptr %7, align 8, !tbaa !33
  %9 = icmp sgt i32 %8, 0
  br i1 %9, label %.lr.ph, label %.loopexit

10:                                               ; preds = %.lr.ph
  %indvars.iv.next = add nuw nsw i64 %indvars.iv, 1
  %11 = load i32, ptr %7, align 8, !tbaa !33
  %12 = sext i32 %11 to i64
  %13 = icmp slt i64 %indvars.iv.next, %12
  br i1 %13, label %.lr.ph, label %.loopexit

.lr.ph:                                           ; preds = %4, %10
  %indvars.iv = phi i64 [ %indvars.iv.next, %10 ], [ 0, %4 ]
  %14 = load ptr, ptr %0, align 8, !tbaa !39
  %15 = load ptr, ptr %14, align 8, !tbaa !38
  %16 = getelementptr inbounds nuw ptr, ptr %15, i64 %indvars.iv
  %17 = load ptr, ptr %16, align 8, !tbaa !40
  %18 = tail call ptr @N_VClone(ptr noundef %17) #7
  %19 = load ptr, ptr %5, align 8, !tbaa !38
  %20 = getelementptr inbounds nuw ptr, ptr %19, i64 %indvars.iv
  store ptr %18, ptr %20, align 8, !tbaa !40
  %21 = icmp eq ptr %18, null
  br i1 %21, label %22, label %10

22:                                               ; preds = %.lr.ph
  tail call void @N_VDestroy(ptr noundef nonnull %2) #7
  br label %.loopexit

.loopexit:                                        ; preds = %10, %4, %1, %22
  %.014 = phi ptr [ null, %22 ], [ null, %1 ], [ %2, %4 ], [ %2, %10 ]
  ret ptr %.014
}